target datalayout = "e-m:e-p270:32:32-p271:32:32-p272:64:64-i64:64-i128:128-f80:128-n8:16:32:64-S128"
target triple = "x86_64-pc-linux-gnu"

%struct.__va_list_tag = type { i32, i32, ptr, ptr }

@ExecutingUnitTests = external global i8, align 1
@stderr = external global ptr, align 8
@.str.79 = private unnamed_addr constant [18 x i8] c"assert failed: %s\00", align 1
@.str.80 = private unnamed_addr constant [22 x i8] c"assert failed: %s: %s\00", align 1
@.str.81 = private unnamed_addr constant [25 x i8] c"assert failed: Error: %s\00", align 1

; Function Attrs: mustprogress nounwind uwtable
define internal void @_ZL25print_error_for_unit_testPKcS0_P13__va_list_tag(ptr noundef %0, ptr noundef %1, ptr noundef %2) #1 {
  %4 = alloca ptr, align 8
  %5 = alloca ptr, align 8
  %6 = alloca ptr, align 8
  %7 = alloca [256 x i8], align 16
  %8 = alloca [1 x %struct.__va_list_tag], align 16
  store ptr %0, ptr %4, align 8
  store ptr %1, ptr %5, align 8
  store ptr %2, ptr %6, align 8
  %9 = load i8, ptr @ExecutingUnitTests, align 1
  %10 = trunc i8 %9 to i1
  br i1 %10, label %11, label %46

11:                                               ; preds = %3
  %12 = load ptr, ptr %5, align 8
  %13 = icmp ne ptr %12, null
  br i1 %13, label %14, label %45

14:                                               ; preds = %11
  %15 = getelementptr inbounds [1 x %struct.__va_list_tag], ptr %8, i64 0, i64 0
  %16 = load ptr, ptr %6, align 8
  call void @llvm.va_copy.p0(ptr %15, ptr %16)
  %17 = getelementptr inbounds [256 x i8], ptr %7, i64 0, i64 0
  %18 = load ptr, ptr %5, align 8
  %19 = getelementptr inbounds [1 x %struct.__va_list_tag], ptr %8, i64 0, i64 0
  %20 = call i32 @jio_vsnprintf(ptr noundef %17, i64 noundef 256, ptr noundef %18, ptr noundef %19)
  %21 = load ptr, ptr %4, align 8
  %22 = icmp eq ptr %21, null
  br i1 %22, label %23, label %27

23:                                               ; preds = %14
  %24 = load ptr, ptr @stderr, align 8
  %25 = getelementptr inbounds [256 x i8], ptr %7, i64 0, i64 0
  %26 = call i32 (ptr, ptr, ...) @fprintf(ptr noundef %24, ptr noundef @.str.79, ptr noundef %25) #11
  br label %41

27:                                               ; preds = %14
  %28 = getelementptr inbounds [256 x i8], ptr %7, i64 0, i64 0
  %29 = call i64 @strlen(ptr noundef %28) #12
  %30 = icmp ugt i64 %29, 0
  br i1 %30, label %31, label %36

31:                                               ; preds = %27
  %32 = load ptr, ptr @stderr, align 8
  %33 = load ptr, ptr %4, align 8
  %34 = getelementptr inbounds [256 x i8], ptr %7, i64 0, i64 0
  %35 = call i32 (ptr, ptr, ...) @fprintf(ptr noundef %32, ptr noundef @.str.80, ptr noundef %33, ptr noundef %34) #11
  br label %40

36:                                               ; preds = %27
  %37 = load ptr, ptr @stderr, align 8
  %38 = load ptr, ptr %4, align 8
  %39 = call i32 (ptr, ptr, ...) @fprintf(ptr noundef %37, ptr noundef @.str.81, ptr noundef %38) #11
  br label %40

40:                                               ; preds = %36, %31
  br label %41

41:                                               ; preds = %40, %23
  %42 = load ptr, ptr @stderr, align 8
  %43 = call i32 @fflush(ptr noundef %42)
  %44 = getelementptr inbounds [1 x %struct.__va_list_tag], ptr %8, i64 0, i64 0
  call void @llvm.va_end.p0(ptr %44)
  br label %45

45:                                               ; preds = %41, %11
  br label %46

46:                                               ; preds = %45, %3
  ret void
}