; Function Attrs: mustprogress nounwind uwtable
define internal fastcc void @_ZL25print_error_for_unit_testPKcS0_P13__va_list_tag(ptr noundef %0, ptr noundef %1, ptr noundef %2) unnamed_addr #1 {
  %4 = alloca [256 x i8], align 16
  %5 = alloca [1 x %struct.__va_list_tag], align 16
  %6 = load i8, ptr @ExecutingUnitTests, align 1
  %7 = trunc i8 %6 to i1
  %8 = icmp ne ptr %1, null
  %or.cond = and i1 %8, %7
  br i1 %or.cond, label %9, label %24

9:                                                ; preds = %3
  call void @llvm.va_copy.p0(ptr nonnull %5, ptr %2)
  %10 = call i32 @jio_vsnprintf(ptr noundef nonnull %4, i64 noundef 256, ptr noundef nonnull %1, ptr noundef nonnull %5) #16
  %11 = icmp eq ptr %0, null
  br i1 %11, label %12, label %15

12:                                               ; preds = %9
  %13 = load ptr, ptr @stderr, align 8
  %14 = call i32 (ptr, ptr, ...) @fprintf(ptr noundef %13, ptr noundef nonnull @.str.79, ptr noundef nonnull %4) #18
  br label %21

15:                                               ; preds = %9
  %char0 = load i8, ptr %4, align 16
  %.not = icmp eq i8 %char0, 0
  %16 = load ptr, ptr @stderr, align 8
  br i1 %.not, label %19, label %17

17:                                               ; preds = %15
  %18 = call i32 (ptr, ptr, ...) @fprintf(ptr noundef %16, ptr noundef nonnull @.str.80, ptr noundef nonnull %0, ptr noundef nonnull %4) #18
  br label %21

19:                                               ; preds = %15
  %20 = call i32 (ptr, ptr, ...) @fprintf(ptr noundef %16, ptr noundef nonnull @.str.81, ptr noundef nonnull %0) #18
  br label %21

21:                                               ; preds = %17, %19, %12
  %22 = load ptr, ptr @stderr, align 8
  %23 = call i32 @fflush(ptr noundef %22)
  call void @llvm.va_end.p0(ptr nonnull %5)
  br label %24

24:                                               ; preds = %21, %3
  ret void
}